target datalayout = "e-m:e-p270:32:32-p271:32:32-p272:64:64-i64:64-i128:128-f80:128-n8:16:32:64-S128"
target triple = "x86_64-pc-linux-gnu"

%class.OopHandle = type { ptr }
%class.XHeap = type { %class.XWorkers, %class.XObjectAllocator, %class.XPageAllocator, %class.XPageTable, %class.XForwardingTable, [8 x i8], %class.XMark, %class.XReferenceProcessor, %class.XWeakRootsProcessor, %class.XRelocate, %class.XRelocationSet, %class.XUnload, %class.XServiceability, [8 x i8] }
%class.XWorkers = type { %class.WorkerThreads }
%class.WorkerThreads = type { ptr, ptr, ptr, i32, i32, i32, %class.WorkerTaskDispatcher }
%class.WorkerTaskDispatcher = type { ptr, i32, i32, %class.Semaphore, %class.Semaphore }
%class.Semaphore = type { %class.PosixSemaphore }
%class.PosixSemaphore = type { %union.sem_t }
%union.sem_t = type { i64, [24 x i8] }
%class.XObjectAllocator = type { i8, %class.XValue, %class.XValue, %class.XValue, %class.XValue, %class.XValue.3, %class.XValue.4 }
%class.XValue = type { i64 }
%class.XValue.3 = type { i64 }
%class.XValue.4 = type { i64 }
%class.XPageAllocator = type <{ %class.XLock, %class.XPageCache, %class.XVirtualMemoryManager, %class.XPhysicalMemoryManager, i64, i64, i64, i64, i64, i64, i64, i64, i64, %class.XList.8, i64, %class.XList.8, ptr, ptr, %class.XSafeDelete, i8, [7 x i8] }>
%class.XLock = type { %class.PlatformMutex }
%class.PlatformMutex = type { %union.pthread_mutex_t }
%union.pthread_mutex_t = type { %struct.__pthread_mutex_s }
%struct.__pthread_mutex_s = type { i32, i32, i32, i32, i32, i16, i16, %struct.__pthread_internal_list }
%struct.__pthread_internal_list = type { ptr, ptr }
%class.XPageCache = type { %class.XValue.5, %class.XList, %class.XList, i64 }
%class.XValue.5 = type { i64 }
%class.XList = type { %class.XListNode, i64 }
%class.XListNode = type { ptr, ptr }
%class.XVirtualMemoryManager = type <{ %class.XMemoryManager, i64, i8, [7 x i8] }>
%class.XMemoryManager = type { %class.XLock, %class.XList.6, %"struct.XMemoryManager::Callbacks" }
%class.XList.6 = type { %class.XListNode.7, i64 }
%class.XListNode.7 = type { ptr, ptr }
%"struct.XMemoryManager::Callbacks" = type { ptr, ptr, ptr, ptr, ptr, ptr }
%class.XPhysicalMemoryManager = type { %class.XPhysicalMemoryBacking, %class.XMemoryManager }
%class.XPhysicalMemoryBacking = type <{ i32, [4 x i8], i64, i64, i64, i64, i8, [7 x i8] }>
%class.XList.8 = type { %class.XListNode.9, i64 }
%class.XListNode.9 = type { ptr, ptr }
%class.XSafeDelete = type { %class.XSafeDeleteImpl, %class.XLock }
%class.XSafeDeleteImpl = type { ptr, i64, %class.GrowableArrayCHeap }
%class.GrowableArrayCHeap = type { %class.GrowableArrayWithAllocator }
%class.GrowableArrayWithAllocator = type { %class.GrowableArrayView }
%class.GrowableArrayView = type { %class.GrowableArrayBase, ptr }
%class.GrowableArrayBase = type { i32, i32 }
%class.XPageTable = type { %class.XGranuleMap }
%class.XGranuleMap = type { i64, ptr }
%class.XForwardingTable = type { %class.XGranuleMap.10 }
%class.XGranuleMap.10 = type { i64, ptr }
%class.XMark = type <{ ptr, ptr, [48 x i8], %class.XMarkStackAllocator, %class.XMarkStripeSet, %class.XMarkTerminate, i8, [7 x i8], i64, i64, i64, i64, i64, i64, i32, [4 x i8] }>
%class.XMarkStackAllocator = type { %class.XStackList, [56 x i8], %class.XMarkStackSpace }
%class.XStackList = type { ptr }
%class.XMarkStackSpace = type { %class.XLock, i64, i64, i64 }
%class.XMarkStripeSet = type { i64, i64, [48 x i8], [16 x %class.XMarkStripe] }
%class.XMarkStripe = type { %class.XStackList.11, [56 x i8], %class.XStackList.11, [56 x i8] }
%class.XStackList.11 = type { ptr }
%class.XMarkTerminate = type { i32, [60 x i8], i32, i32, [56 x i8] }
%class.XReferenceProcessor = type { %class.ReferenceDiscoverer, ptr, ptr, %class.XValue.12, %class.XValue.12, %class.XValue.12, %class.XValue.13, %class.XValue.14, ptr }
%class.ReferenceDiscoverer = type { ptr }
%class.XValue.12 = type { i64 }
%class.XValue.13 = type { i64 }
%class.XValue.14 = type { i64 }
%class.XWeakRootsProcessor = type { ptr }
%class.XRelocate = type { ptr }
%class.XRelocationSet = type { ptr, %class.XForwardingAllocator, ptr, i64 }
%class.XForwardingAllocator = type { ptr, ptr, ptr }
%class.XUnload = type { ptr }
%class.XServiceability = type { i64, i64, %class.XServiceabilityMemoryPool, %class.XServiceabilityMemoryManager, %class.XServiceabilityMemoryManager, ptr }
%class.XServiceabilityMemoryPool = type { %class.CollectedMemoryPool.base, [7 x i8] }
%class.CollectedMemoryPool.base = type { %class.MemoryPool.base }
%class.MemoryPool.base = type <{ ptr, ptr, i32, [4 x i8], i64, i64, i8, [7 x i8], [5 x ptr], i32, [4 x i8], %class.MemoryUsage, %class.MemoryUsage, ptr, ptr, ptr, ptr, %class.OopHandle, i8 }>
%class.MemoryUsage = type { i64, i64, i64, i64 }
%class.XServiceabilityMemoryManager = type { %class.GCMemoryManager.base, i8 }
%class.GCMemoryManager.base = type <{ %class.MemoryManager.base, [7 x i8], i64, %class.elapsedTimer, ptr, ptr, ptr, i32, i8, [10 x i8] }>
%class.MemoryManager.base = type <{ ptr, [10 x ptr], i32, [4 x i8], ptr, %class.OopHandle, i8 }>
%class.elapsedTimer = type <{ i64, i64, i8, [7 x i8] }>
%class.XArrayIteratorImpl = type { ptr, ptr }
%class.XPageTableIterator = type { [8 x i8], %class.XGranuleMapIterator, ptr }
%class.XGranuleMapIterator = type { %class.XArrayIteratorImpl }

@.str.10 = private unnamed_addr constant [61 x i8] c" ZHeap           used %luM, capacity %luM, max capacity %luM\00", align 1
@.str.11 = private unnamed_addr constant [16 x i8] c"ZGC Page Table:\00", align 1

; Function Attrs: mustprogress nounwind uwtable
define linkonce_odr hidden noundef zeroext i1 @_ZN18XArrayIteratorImplIP5XPageLb0EE11next_serialEPS1_(ptr noundef nonnull align 8 dereferenceable(16) %0, ptr noundef %1) #1 comdat align 2 {
  %3 = alloca i1, align 1
  %4 = alloca ptr, align 8
  %5 = alloca ptr, align 8
  store ptr %0, ptr %4, align 8
  store ptr %1, ptr %5, align 8
  %6 = load ptr, ptr %4, align 8
  %7 = getelementptr inbounds %class.XArrayIteratorImpl, ptr %6, i32 0, i32 0
  %8 = load ptr, ptr %7, align 8
  %9 = getelementptr inbounds %class.XArrayIteratorImpl, ptr %6, i32 0, i32 1
  %10 = load ptr, ptr %9, align 8
  %11 = icmp eq ptr %8, %10
  br i1 %11, label %12, label %13

12:                                               ; preds = %2
  store i1 false, ptr %3, align 1
  br label %21

13:                                               ; preds = %2
  %14 = getelementptr inbounds %class.XArrayIteratorImpl, ptr %6, i32 0, i32 0
  %15 = load ptr, ptr %14, align 8
  %16 = load ptr, ptr %15, align 8
  %17 = load ptr, ptr %5, align 8
  store ptr %16, ptr %17, align 8
  %18 = getelementptr inbounds %class.XArrayIteratorImpl, ptr %6, i32 0, i32 0
  %19 = load ptr, ptr %18, align 8
  %20 = getelementptr inbounds ptr, ptr %19, i32 1
  store ptr %20, ptr %18, align 8
  store i1 true, ptr %3, align 1
  br label %21

21:                                               ; preds = %13, %12
  %22 = load i1, ptr %3, align 1
  ret i1 %22
}

; Function Attrs: mustprogress nounwind uwtable
define linkonce_odr hidden void @_ZN18XArrayIteratorImplIP5XPageLb0EEC2EPKS1_m(ptr noundef nonnull align 8 dereferenceable(16) %0, ptr noundef %1, i64 noundef %2) unnamed_addr #1 comdat align 2 {
  %4 = alloca ptr, align 8
  %5 = alloca ptr, align 8
  %6 = alloca i64, align 8
  store ptr %0, ptr %4, align 8
  store ptr %1, ptr %5, align 8
  store i64 %2, ptr %6, align 8
  %7 = load ptr, ptr %4, align 8
  %8 = getelementptr inbounds %class.XArrayIteratorImpl, ptr %7, i32 0, i32 0
  %9 = load ptr, ptr %5, align 8
  store ptr %9, ptr %8, align 8
  %10 = getelementptr inbounds %class.XArrayIteratorImpl, ptr %7, i32 0, i32 1
  %11 = load ptr, ptr %5, align 8
  %12 = load i64, ptr %6, align 8
  %13 = getelementptr inbounds ptr, ptr %11, i64 %12
  store ptr %13, ptr %10, align 8
  ret void
}

; Function Attrs: mustprogress nounwind uwtable
define linkonce_odr hidden noundef zeroext i1 @_ZN18XArrayIteratorImplIP5XPageLb0EE4nextEPS1_(ptr noundef nonnull align 8 dereferenceable(16) %0, ptr noundef %1) #1 comdat align 2 {
  %3 = alloca ptr, align 8
  %4 = alloca ptr, align 8
  store ptr %0, ptr %3, align 8
  store ptr %1, ptr %4, align 8
  %5 = load ptr, ptr %3, align 8
  %6 = load ptr, ptr %4, align 8
  %7 = call noundef zeroext i1 @_ZN18XArrayIteratorImplIP5XPageLb0EE11next_serialEPS1_(ptr noundef nonnull align 8 dereferenceable(16) %5, ptr noundef %6)
  ret i1 %7
}

; Function Attrs: mustprogress nounwind uwtable
define linkonce_odr hidden void @_ZN19XGranuleMapIteratorIP5XPageEC2EPK11XGranuleMapIS1_E(ptr noundef nonnull align 8 dereferenceable(16) %0, ptr noundef %1) unnamed_addr #1 comdat align 2 {
  %3 = alloca ptr, align 8
  %4 = alloca ptr, align 8
  store ptr %0, ptr %3, align 8
  store ptr %1, ptr %4, align 8
  %5 = load ptr, ptr %3, align 8
  %6 = load ptr, ptr %4, align 8
  %7 = getelementptr inbounds %class.XGranuleMap, ptr %6, i32 0, i32 1
  %8 = load ptr, ptr %7, align 8
  %9 = load ptr, ptr %4, align 8
  %10 = getelementptr inbounds %class.XGranuleMap, ptr %9, i32 0, i32 0
  %11 = load i64, ptr %10, align 8
  call void @_ZN18XArrayIteratorImplIP5XPageLb0EEC2EPKS1_m(ptr noundef nonnull align 8 dereferenceable(16) %5, ptr noundef %8, i64 noundef %11)
  ret void
}

; Function Attrs: mustprogress nounwind uwtable
define hidden noundef i64 @_ZNK5XHeap12max_capacityEv(ptr noundef nonnull align 64 dereferenceable(4088) %0) #1 align 2 {
  %2 = alloca ptr, align 8
  store ptr %0, ptr %2, align 8
  %3 = load ptr, ptr %2, align 8
  %4 = getelementptr inbounds %class.XHeap, ptr %3, i32 0, i32 2
  %5 = call noundef i64 @_ZNK14XPageAllocator12max_capacityEv(ptr noundef nonnull align 8 dereferenceable(609) %4)
  ret i64 %5
}

; Function Attrs: mustprogress nounwind uwtable
define hidden noundef i64 @_ZNK5XHeap8capacityEv(ptr noundef nonnull align 64 dereferenceable(4088) %0) #1 align 2 {
  %2 = alloca ptr, align 8
  store ptr %0, ptr %2, align 8
  %3 = load ptr, ptr %2, align 8
  %4 = getelementptr inbounds %class.XHeap, ptr %3, i32 0, i32 2
  %5 = call noundef i64 @_ZNK14XPageAllocator8capacityEv(ptr noundef nonnull align 8 dereferenceable(609) %4)
  ret i64 %5
}

; Function Attrs: mustprogress nounwind uwtable
define hidden noundef i64 @_ZNK5XHeap4usedEv(ptr noundef nonnull align 64 dereferenceable(4088) %0) #1 align 2 {
  %2 = alloca ptr, align 8
  store ptr %0, ptr %2, align 8
  %3 = load ptr, ptr %2, align 8
  %4 = getelementptr inbounds %class.XHeap, ptr %3, i32 0, i32 2
  %5 = call noundef i64 @_ZNK14XPageAllocator4usedEv(ptr noundef nonnull align 8 dereferenceable(609) %4)
  ret i64 %5
}

; Function Attrs: mustprogress nounwind uwtable
define linkonce_odr hidden noundef zeroext i1 @_ZN18XPageTableIterator4nextEPP5XPage(ptr noundef nonnull align 8 dereferenceable(32) %0, ptr noundef %1) #1 comdat align 2 {
  %3 = alloca i1, align 1
  %4 = alloca ptr, align 8
  %5 = alloca ptr, align 8
  %6 = alloca ptr, align 8
  store ptr %0, ptr %4, align 8
  store ptr %1, ptr %5, align 8
  %7 = load ptr, ptr %4, align 8
  br label %8

8:                                                ; preds = %23, %2
  %9 = getelementptr inbounds %class.XPageTableIterator, ptr %7, i32 0, i32 1
  %10 = call noundef zeroext i1 @_ZN18XArrayIteratorImplIP5XPageLb0EE4nextEPS1_(ptr noundef nonnull align 8 dereferenceable(16) %9, ptr noundef %6)
  br i1 %10, label %11, label %24

11:                                               ; preds = %8
  %12 = load ptr, ptr %6, align 8
  %13 = icmp ne ptr %12, null
  br i1 %13, label %14, label %23

14:                                               ; preds = %11
  %15 = load ptr, ptr %6, align 8
  %16 = getelementptr inbounds %class.XPageTableIterator, ptr %7, i32 0, i32 2
  %17 = load ptr, ptr %16, align 8
  %18 = icmp ne ptr %15, %17
  br i1 %18, label %19, label %23

19:                                               ; preds = %14
  %20 = load ptr, ptr %6, align 8
  %21 = getelementptr inbounds %class.XPageTableIterator, ptr %7, i32 0, i32 2
  store ptr %20, ptr %21, align 8
  %22 = load ptr, ptr %5, align 8
  store ptr %20, ptr %22, align 8
  store i1 true, ptr %3, align 1
  br label %25

23:                                               ; preds = %14, %11
  br label %8, !llvm.loop !10

24:                                               ; preds = %8
  store i1 false, ptr %3, align 1
  br label %25

25:                                               ; preds = %24, %19
  %26 = load i1, ptr %3, align 1
  ret i1 %26
}

; Function Attrs: mustprogress nounwind uwtable
define linkonce_odr hidden void @_ZN18XPageTableIteratorC2EPK10XPageTable(ptr noundef nonnull align 8 dereferenceable(32) %0, ptr noundef %1) unnamed_addr #1 comdat align 2 {
  %3 = alloca ptr, align 8
  %4 = alloca ptr, align 8
  store ptr %0, ptr %3, align 8
  store ptr %1, ptr %4, align 8
  %5 = load ptr, ptr %3, align 8
  %6 = getelementptr inbounds %class.XPageTableIterator, ptr %5, i32 0, i32 1
  %7 = load ptr, ptr %4, align 8
  %8 = getelementptr inbounds %class.XPageTable, ptr %7, i32 0, i32 0
  call void @_ZN19XGranuleMapIteratorIP5XPageEC2EPK11XGranuleMapIS1_E(ptr noundef nonnull align 8 dereferenceable(16) %6, ptr noundef %8)
  %9 = getelementptr inbounds %class.XPageTableIterator, ptr %5, i32 0, i32 2
  store ptr null, ptr %9, align 8
  ret void
}

; Function Attrs: mustprogress nounwind uwtable
define hidden void @_ZNK5XHeap8print_onEP12outputStream(ptr noundef nonnull align 64 dereferenceable(4088) %0, ptr noundef %1) #1 align 2 {
  %3 = alloca ptr, align 8
  %4 = alloca ptr, align 8
  store ptr %0, ptr %3, align 8
  store ptr %1, ptr %4, align 8
  %5 = load ptr, ptr %3, align 8
  %6 = load ptr, ptr %4, align 8
  %7 = call noundef i64 @_ZNK5XHeap4usedEv(ptr noundef nonnull align 64 dereferenceable(4088) %5)
  %8 = udiv i64 %7, 1048576
  %9 = call noundef i64 @_ZNK5XHeap8capacityEv(ptr noundef nonnull align 64 dereferenceable(4088) %5)
  %10 = udiv i64 %9, 1048576
  %11 = call noundef i64 @_ZNK5XHeap12max_capacityEv(ptr noundef nonnull align 64 dereferenceable(4088) %5)
  %12 = udiv i64 %11, 1048576
  call void (ptr, ptr, ...) @_ZN12outputStream8print_crEPKcz(ptr noundef nonnull align 8 dereferenceable(56) %6, ptr noundef @.str.10, i64 noundef %8, i64 noundef %10, i64 noundef %12)
  %13 = load ptr, ptr %4, align 8
  call void @_ZN14MetaspaceUtils8print_onEP12outputStream(ptr noundef %13)
  ret void
}

; Function Attrs: mustprogress nounwind uwtable
define hidden void @_ZNK5XHeap17print_extended_onEP12outputStream(ptr noundef nonnull align 64 dereferenceable(4088) %0, ptr noundef %1) #1 align 2 {
  %3 = alloca ptr, align 8
  %4 = alloca ptr, align 8
  %5 = alloca %class.XPageTableIterator, align 8
  %6 = alloca ptr, align 8
  store ptr %0, ptr %3, align 8
  store ptr %1, ptr %4, align 8
  %7 = load ptr, ptr %3, align 8
  %8 = load ptr, ptr %4, align 8
  call void @_ZNK5XHeap8print_onEP12outputStream(ptr noundef nonnull align 64 dereferenceable(4088) %7, ptr noundef %8)
  %9 = load ptr, ptr %4, align 8
  call void @_ZN12outputStream2crEv(ptr noundef nonnull align 8 dereferenceable(56) %9)
  %10 = getelementptr inbounds %class.XHeap, ptr %7, i32 0, i32 2
  call void @_ZNK14XPageAllocator22enable_deferred_deleteEv(ptr noundef nonnull align 8 dereferenceable(609) %10)
  %11 = load ptr, ptr %4, align 8
  call void (ptr, ptr, ...) @_ZN12outputStream8print_crEPKcz(ptr noundef nonnull align 8 dereferenceable(56) %11, ptr noundef @.str.11)
  %12 = getelementptr inbounds %class.XHeap, ptr %7, i32 0, i32 3
  call void @_ZN18XPageTableIteratorC2EPK10XPageTable(ptr noundef nonnull align 8 dereferenceable(32) %5, ptr noundef %12)
  br label %13

13:                                               ; preds = %15, %2
  %14 = call noundef zeroext i1 @_ZN18XPageTableIterator4nextEPP5XPage(ptr noundef nonnull align 8 dereferenceable(32) %5, ptr noundef %6)
  br i1 %14, label %15, label %18

15:                                               ; preds = %13
  %16 = load ptr, ptr %6, align 8
  %17 = load ptr, ptr %4, align 8
  call void @_ZNK5XPage8print_onEP12outputStream(ptr noundef nonnull align 8 dereferenceable(136) %16, ptr noundef %17)
  br label %13, !llvm.loop !13

18:                                               ; preds = %13
  %19 = getelementptr inbounds %class.XHeap, ptr %7, i32 0, i32 2
  call void @_ZNK14XPageAllocator23disable_deferred_deleteEv(ptr noundef nonnull align 8 dereferenceable(609) %19)
  ret void
}