; Function Attrs: mustprogress nounwind uwtable
define hidden void @_ZNK5XHeap17print_extended_onEP12outputStream(ptr noundef nonnull align 64 dereferenceable(4088) %0, ptr noundef %1) local_unnamed_addr #1 align 2 {
  %3 = getelementptr inbounds i8, ptr %0, i64 176
  %4 = tail call noundef i64 @_ZNK14XPageAllocator4usedEv(ptr noundef nonnull align 8 dereferenceable(609) %3) #12
  %5 = lshr i64 %4, 20
  %6 = tail call noundef i64 @_ZNK14XPageAllocator8capacityEv(ptr noundef nonnull align 8 dereferenceable(609) %3) #12
  %7 = lshr i64 %6, 20
  %8 = tail call noundef i64 @_ZNK14XPageAllocator12max_capacityEv(ptr noundef nonnull align 8 dereferenceable(609) %3) #12
  %9 = lshr i64 %8, 20
  tail call void (ptr, ptr, ...) @_ZN12outputStream8print_crEPKcz(ptr noundef nonnull align 8 dereferenceable(56) %1, ptr noundef nonnull @.str.10, i64 noundef %5, i64 noundef %7, i64 noundef %9) #12
  tail call void @_ZN14MetaspaceUtils8print_onEP12outputStream(ptr noundef nonnull %1) #12
  tail call void @_ZN12outputStream2crEv(ptr noundef nonnull align 8 dereferenceable(56) %1) #12
  tail call void @_ZNK14XPageAllocator22enable_deferred_deleteEv(ptr noundef nonnull align 8 dereferenceable(609) %3) #12
  tail call void (ptr, ptr, ...) @_ZN12outputStream8print_crEPKcz(ptr noundef nonnull align 8 dereferenceable(56) %1, ptr noundef nonnull @.str.11) #12
  %10 = getelementptr inbounds i8, ptr %0, i64 792
  %11 = getelementptr inbounds i8, ptr %0, i64 800
  %12 = load ptr, ptr %11, align 32
  %13 = load i64, ptr %10, align 8
  %14 = getelementptr inbounds ptr, ptr %12, i64 %13
  %.not14.i12 = icmp eq i64 %13, 0
  br i1 %.not14.i12, label %.loopexit, label %.lr.ph.i.preheader

.lr.ph.i.preheader:                               ; preds = %2, %_ZN18XPageTableIterator4nextEPP5XPage.exit
  %.sroa.0.014 = phi ptr [ %17, %_ZN18XPageTableIterator4nextEPP5XPage.exit ], [ %12, %2 ]
  %.sroa.5.013 = phi ptr [ %16, %_ZN18XPageTableIterator4nextEPP5XPage.exit ], [ null, %2 ]
  br label %.lr.ph.i

.lr.ph.i:                                         ; preds = %.lr.ph.i.preheader, %18
  %15 = phi ptr [ %17, %18 ], [ %.sroa.0.014, %.lr.ph.i.preheader ]
  %16 = load ptr, ptr %15, align 8
  %17 = getelementptr inbounds i8, ptr %15, i64 8
  %.not.i = icmp eq ptr %16, null
  %.not4.i = icmp eq ptr %16, %.sroa.5.013
  %or.cond.i = or i1 %.not.i, %.not4.i
  br i1 %or.cond.i, label %18, label %_ZN18XPageTableIterator4nextEPP5XPage.exit

18:                                               ; preds = %.lr.ph.i
  %.not15.i = icmp eq ptr %17, %14
  br i1 %.not15.i, label %.loopexit, label %.lr.ph.i, !llvm.loop !8

_ZN18XPageTableIterator4nextEPP5XPage.exit:       ; preds = %.lr.ph.i
  tail call void @_ZNK5XPage8print_onEP12outputStream(ptr noundef nonnull align 8 dereferenceable(136) %16, ptr noundef nonnull %1) #12
  %.not14.i = icmp eq ptr %17, %14
  br i1 %.not14.i, label %.loopexit, label %.lr.ph.i.preheader, !llvm.loop !17

.loopexit:                                        ; preds = %_ZN18XPageTableIterator4nextEPP5XPage.exit, %18, %2
  tail call void @_ZNK14XPageAllocator23disable_deferred_deleteEv(ptr noundef nonnull align 8 dereferenceable(609) %3) #12
  ret void
}